target datalayout = "e-m:e-p270:32:32-p271:32:32-p272:64:64-i64:64-i128:128-f80:128-n8:16:32:64-S128"
target triple = "x86_64-pc-linux-gnu"

%struct.PageHeaderData = type { %struct.PageXLogRecPtr, i16, i16, i16, i16, i16, i16, i32, [0 x %struct.ItemIdData] }
%struct.PageXLogRecPtr = type { i32, i32 }
%struct.ItemIdData = type { i32 }
%struct.BrinSpecialSpace = type { [4 x i16] }
%struct.BrinMetaPageData = type { i32, i32, i32, i32 }

; Function Attrs: inlinehint nounwind uwtable
define internal void @PageValidateSpecialPointer(ptr noundef %0) #4 {
  %2 = alloca ptr, align 8
  store ptr %0, ptr %2, align 8
  ret void
}

; Function Attrs: inlinehint nounwind uwtable
define internal ptr @PageGetContents(ptr noundef %0) #4 {
  %2 = alloca ptr, align 8
  store ptr %0, ptr %2, align 8
  %3 = load ptr, ptr %2, align 8
  %4 = getelementptr inbounds nuw i8, ptr %3, i64 24
  ret ptr %4
}

; Function Attrs: nounwind uwtable
define dso_local void @brin_page_init(ptr noundef %0, i16 noundef zeroext %1) #0 {
  %3 = alloca ptr, align 8
  %4 = alloca i16, align 2
  store ptr %0, ptr %3, align 8
  store i16 %1, ptr %4, align 2
  %5 = load ptr, ptr %3, align 8
  call void @PageInit(ptr noundef %5, i64 noundef 8192, i64 noundef 8)
  %6 = load i16, ptr %4, align 2
  %7 = load ptr, ptr %3, align 8
  call void @PageValidateSpecialPointer(ptr noundef %7)
  %8 = load ptr, ptr %3, align 8
  %9 = load ptr, ptr %3, align 8
  %10 = getelementptr inbounds nuw %struct.PageHeaderData, ptr %9, i32 0, i32 5
  %11 = load i16, ptr %10, align 4
  %12 = zext i16 %11 to i32
  %13 = sext i32 %12 to i64
  %14 = getelementptr inbounds i8, ptr %8, i64 %13
  %15 = getelementptr inbounds nuw %struct.BrinSpecialSpace, ptr %14, i32 0, i32 0
  %16 = getelementptr inbounds nuw [4 x i16], ptr %15, i64 0, i64 3
  store i16 %6, ptr %16, align 2
  ret void
}

; Function Attrs: nounwind uwtable
define dso_local void @brin_metapage_init(ptr noundef %0, i32 noundef %1, i16 noundef zeroext %2) #0 {
  %4 = alloca ptr, align 8
  %5 = alloca i32, align 4
  %6 = alloca i16, align 2
  %7 = alloca ptr, align 8
  store ptr %0, ptr %4, align 8
  store i32 %1, ptr %5, align 4
  store i16 %2, ptr %6, align 2
  call void @llvm.lifetime.start.p0(i64 8, ptr %7) #7
  %8 = load ptr, ptr %4, align 8
  call void @brin_page_init(ptr noundef %8, i16 noundef zeroext -3951)
  %9 = load ptr, ptr %4, align 8
  %10 = call ptr @PageGetContents(ptr noundef %9)
  store ptr %10, ptr %7, align 8
  %11 = load ptr, ptr %7, align 8
  %12 = getelementptr inbounds nuw %struct.BrinMetaPageData, ptr %11, i32 0, i32 0
  store i32 -1475306246, ptr %12, align 4
  %13 = load i16, ptr %6, align 2
  %14 = zext i16 %13 to i32
  %15 = load ptr, ptr %7, align 8
  %16 = getelementptr inbounds nuw %struct.BrinMetaPageData, ptr %15, i32 0, i32 1
  store i32 %14, ptr %16, align 4
  %17 = load i32, ptr %5, align 4
  %18 = load ptr, ptr %7, align 8
  %19 = getelementptr inbounds nuw %struct.BrinMetaPageData, ptr %18, i32 0, i32 2
  store i32 %17, ptr %19, align 4
  %20 = load ptr, ptr %7, align 8
  %21 = getelementptr inbounds nuw %struct.BrinMetaPageData, ptr %20, i32 0, i32 3
  store i32 0, ptr %21, align 4
  %22 = load ptr, ptr %7, align 8
  %23 = getelementptr inbounds nuw i8, ptr %22, i64 16
  %24 = load ptr, ptr %4, align 8
  %25 = ptrtoint ptr %23 to i64
  %26 = ptrtoint ptr %24 to i64
  %27 = sub i64 %25, %26
  %28 = trunc i64 %27 to i16
  %29 = load ptr, ptr %4, align 8
  %30 = getelementptr inbounds nuw %struct.PageHeaderData, ptr %29, i32 0, i32 3
  store i16 %28, ptr %30, align 4
  call void @llvm.lifetime.end.p0(i64 8, ptr %7) #7
  ret void
}