; Function Attrs: nounwind uwtable
define dso_local void @brin_metapage_init(ptr noundef %0, i32 noundef %1, i16 noundef zeroext %2) local_unnamed_addr #0 {
  tail call void @PageInit(ptr noundef %0, i64 noundef 8192, i64 noundef 8) #5
  %4 = getelementptr inbounds nuw i8, ptr %0, i64 16
  %5 = load i16, ptr %4, align 4
  %6 = zext i16 %5 to i64
  %7 = getelementptr inbounds nuw i8, ptr %0, i64 %6
  %8 = getelementptr inbounds nuw i8, ptr %7, i64 6
  store i16 -3951, ptr %8, align 2
  %9 = getelementptr inbounds nuw i8, ptr %0, i64 24
  store i32 -1475306246, ptr %9, align 4
  %10 = zext i16 %2 to i32
  %11 = getelementptr inbounds nuw i8, ptr %0, i64 28
  store i32 %10, ptr %11, align 4
  %12 = getelementptr inbounds nuw i8, ptr %0, i64 32
  store i32 %1, ptr %12, align 4
  %13 = getelementptr inbounds nuw i8, ptr %0, i64 36
  store i32 0, ptr %13, align 4
  %14 = getelementptr inbounds nuw i8, ptr %0, i64 12
  store i16 40, ptr %14, align 4
  ret void
}